; Function Attrs: mustprogress uwtable
define hidden noundef zeroext i1 @_ZN4cvc58internal6theory4sets10TheorySets19needsEqualityEngineERNS1_11EeSetupInfoE(ptr noundef nonnull align 8 dereferenceable(2336) %this, ptr noundef nonnull align 8 dereferenceable(45) %esi) unnamed_addr #3 align 2 {
entry:
  %d_notify = getelementptr inbounds i8, ptr %this, i64 2312
  store ptr %d_notify, ptr %esi, align 8
  %d_name = getelementptr inbounds i8, ptr %esi, i64 8
  %call = tail call noundef nonnull align 8 dereferenceable(32) ptr @_ZNSt7__cxx1112basic_stringIcSt11char_traitsIcESaIcEEaSEPKc(ptr noundef nonnull align 8 dereferenceable(32) %d_name, ptr noundef nonnull @.str.1)
  %d_notifyNewClass = getelementptr inbounds i8, ptr %esi, i64 41
  store i8 1, ptr %d_notifyNewClass, align 1
  %d_notifyMerge = getelementptr inbounds i8, ptr %esi, i64 42
  store i8 1, ptr %d_notifyMerge, align 2
  %d_notifyDisequal = getelementptr inbounds i8, ptr %esi, i64 43
  store i8 1, ptr %d_notifyDisequal, align 1
  ret i1 true
}